(dp1
S'bell-18.png'
p2
I4
sS'cup-11.png'
p3
I21
sS'horseshoe-9.png'
p4
I49
sS'children-10.png'
p5
I16
sS'beetle-18.png'
p6
I3
sS'bell-4.png'
p7
I4
sS'device7-12.png'
p8
I30
sS'classic-5.png'
p9
I18
sS'car-09.png'
p10
I11
sS'device7-6.png'
p11
I30
sS'camel-11.png'
p12
I10
sS'device6-18.png'
p13
I29
sS'sea_snake-14.png'
p14
I61
sS'beetle-11.png'
p15
I3
sS'rat-07.png'
p16
I59
sS'Heart-11.png'
p17
I47
sS'octopus-3.png'
p18
I55
sS'dog-10.png'
p19
I33
sS'cup-9.png'
p20
I21
sS'carriage-16.png'
p21
I12
sS'stef-02.png'
p22
I65
sS'butterfly-12.png'
p23
I9
sS'fountain-09.png'
p24
I40
sS'cellular_phone-13.png'
p25
I14
sS'tree-10.png'
p26
I67
sS'elephant-17.png'
p27
I34
sS'face-4.png'
p28
I35
sS'hammer-14.png'
p29
I44
sS'device7-10.png'
p30
I30
sS'deer-10.png'
p31
I22
sS'chopper-17.png'
p32
I17
sS'Glas-6.png'
p33
I42
sS'frog-13.png'
p34
I41
sS'lmfish-13.png'
p35
I53
sS'sea_snake-4.png'
p36
I61
sS'key-5.png'
p37
I51
sS'pencil-18.png'
p38
I56
sS'face-16.png'
p39
I35
sS'carriage-02.png'
p40
I12
sS'hammer-8.png'
p41
I44
sS'lmfish-10.png'
p42
I53
sS'device0-3.png'
p43
I23
sS'Comma-3.png'
p44
I19
sS'fountain-16.png'
p45
I40
sS'chicken-6.png'
p46
I15
sS'device3-1.png'
p47
I26
sS'Heart-5.png'
p48
I47
sS'device8-4.png'
p49
I31
sS'chicken-17.png'
p50
I15
sS'shoe-1.png'
p51
I62
sS'tree-8.png'
p52
I67
sS'personal_car-7.png'
p53
I57
sS'horse-7.png'
p54
I48
sS'turtle-18.png'
p55
I69
sS'face-10.png'
p56
I35
sS'teddy-11.png'
p57
I66
sS'watch-17.png'
p58
I70
sS'bird-14.png'
p59
I5
sS'car-08.png'
p60
I11
sS'fork-8.png'
p61
I39
sS'device7-5.png'
p62
I30
sS'Glas-12.png'
p63
I42
sS'device3-3.png'
p64
I26
sS'horseshoe-16.png'
p65
I49
sS'cellular_phone-14.png'
p66
I14
sS'bird-3.png'
p67
I5
sS'fish-6.png'
p68
I36
sS'stef-19.png'
p69
I65
sS'face-3.png'
p70
I35
sS'brick-16.png'
p71
I8
sS'key-18.png'
p72
I51
sS'face-12.png'
p73
I35
sS'Comma-20.png'
p74
I19
sS'device6-10.png'
p75
I29
sS'Misk-16.png'
p76
I54
sS'device4-5.png'
p77
I27
sS'Glas-5.png'
p78
I42
sS'pocket-17.png'
p79
I58
sS'sea_snake-1.png'
p80
I61
sS'Glas-10.png'
p81
I42
sS'flatfish-15.png'
p82
I37
sS'HCircle-20.png'
p83
I46
sS'fish-4.png'
p84
I36
sS'device1-19.png'
p85
I24
sS'device4-14.png'
p86
I27
sS'carriage-07.png'
p87
I12
sS'bat-20.png'
p88
I2
sS'face-20.png'
p89
I35
sS'brick-04.png'
p90
I8
sS'ray-14.png'
p91
I60
sS'truck-14.png'
p92
I68
sS'cellular_phone-17.png'
p93
I14
sS'guitar-20.png'
p94
I43
sS'hammer-2.png'
p95
I44
sS'bat-3.png'
p96
I2
sS'brick-07.png'
p97
I8
sS'crown-3.png'
p98
I20
sS'jar-20.png'
p99
I50
sS'HCircle-11.png'
p100
I46
sS'classic-12.png'
p101
I18
sS'brick-20.png'
p102
I8
sS'deer-18.png'
p103
I22
sS'lmfish-7.png'
p104
I53
sS'frog-12.png'
p105
I41
sS'spoon-18.png'
p106
I63
sS'hat-7.png'
p107
I45
sS'jar-13.png'
p108
I50
sS'deer-8.png'
p109
I22
sS'stef-11.png'
p110
I65
sS'tree-6.png'
p111
I67
sS'chopper-02.png'
p112
I17
sS'octopus-9.png'
p113
I55
sS'key-10.png'
p114
I51
sS'car-18.png'
p115
I11
sS'device5-15.png'
p116
I28
sS'bird-11.png'
p117
I5
sS'lizzard-4.png'
p118
I52
sS'Misk-10.png'
p119
I54
sS'device0-6.png'
p120
I23
sS'device0-19.png'
p121
I23
sS'bat-17.png'
p122
I2
sS'ray-7.png'
p123
I60
sS'flatfish-5.png'
p124
I37
sS'personal_car-14.png'
p125
I57
sS'camel-18.png'
p126
I10
sS'frog-3.png'
p127
I41
sS'device4-7.png'
p128
I27
sS'brick-09.png'
p129
I8
sS'Heart-9.png'
p130
I47
sS'apple-12.png'
p131
I1
sS'frog-14.png'
p132
I41
sS'device2-1.png'
p133
I25
sS'crown-20.png'
p134
I20
sS'bottle-20.png'
p135
I7
sS'elephant-16.png'
p136
I34
sS'watch-13.png'
p137
I70
sS'key-9.png'
p138
I51
sS'horse-15.png'
p139
I48
sS'fork-4.png'
p140
I39
sS'device5-4.png'
p141
I28
sS'device0-4.png'
p142
I23
sS'beetle-9.png'
p143
I3
sS'personal_car-16.png'
p144
I57
sS'pocket-8.png'
p145
I58
sS'shoe-18.png'
p146
I62
sS'spoon-2.png'
p147
I63
sS'shoe-17.png'
p148
I62
sS'stef-15.png'
p149
I65
sS'shoe-6.png'
p150
I62
sS'stef-05.png'
p151
I65
sS'fountain-06.png'
p152
I40
sS'bat-6.png'
p153
I2
sS'device1-11.png'
p154
I24
sS'device5-11.png'
p155
I28
sS'Heart-13.png'
p156
I47
sS'octopus-1.png'
p157
I55
sS'device9-7.png'
p158
I32
sS'Bone-6.png'
p159
I6
sS'butterfly-2.png'
p160
I9
sS'butterfly-10.png'
p161
I9
sS'horse-4.png'
p162
I48
sS'fountain-20.png'
p163
I40
sS'crown-9.png'
p164
I20
sS'dog-19.png'
p165
I33
sS'turtle-15.png'
p166
I69
sS'cattle-14.png'
p167
I13
sS'device6-7.png'
p168
I29
sS'bell-10.png'
p169
I4
sS'spoon-13.png'
p170
I63
sS'octopus-11.png'
p171
I55
sS'elephant-20.png'
p172
I34
sS'device6-17.png'
p173
I29
sS'watch-16.png'
p174
I70
sS'device9-17.png'
p175
I32
sS'guitar-13.png'
p176
I43
sS'personal_car-11.png'
p177
I57
sS'device8-20.png'
p178
I31
sS'car-05.png'
p179
I11
sS'horseshoe-17.png'
p180
I49
sS'hat-9.png'
p181
I45
sS'dog-3.png'
p182
I33
sS'Bone-4.png'
p183
I6
sS'hammer-13.png'
p184
I44
sS'apple-2.png'
p185
I1
sS'apple-14.png'
p186
I1
sS'crown-15.png'
p187
I20
sS'cup-16.png'
p188
I21
sS'chopper-13.png'
p189
I17
sS'device7-19.png'
p190
I30
sS'lmfish-6.png'
p191
I53
sS'dog-8.png'
p192
I33
sS'watch-14.png'
p193
I70
sS'jar-17.png'
p194
I50
sS'personal_car-5.png'
p195
I57
sS'pocket-2.png'
p196
I58
sS'device5-6.png'
p197
I28
sS'horseshoe-15.png'
p198
I49
sS'cellular_phone-6.png'
p199
I14
sS'fish-18.png'
p200
I36
sS'frog-6.png'
p201
I41
sS'pocket-20.png'
p202
I58
sS'device3-18.png'
p203
I26
sS'bottle-11.png'
p204
I7
sS'hammer-18.png'
p205
I44
sS'octopus-19.png'
p206
I55
sS'device6-13.png'
p207
I29
sS'bird-16.png'
p208
I5
sS'ray-15.png'
p209
I60
sS'Heart-1.png'
p210
I47
sS'truck-05.png'
p211
I68
sS'camel-20.png'
p212
I10
sS'horseshoe-6.png'
p213
I49
sS'cellular_phone-16.png'
p214
I14
sS'dog-13.png'
p215
I33
sS'guitar-3.png'
p216
I43
sS'fish-16.png'
p217
I36
sS'face-1.png'
p218
I35
sS'fountain-08.png'
p219
I40
sS'device0-16.png'
p220
I23
sS'dog-7.png'
p221
I33
sS'bottle-02.png'
p222
I7
sS'HCircle-2.png'
p223
I46
sS'cup-1.png'
p224
I21
sS'device7-20.png'
p225
I30
sS'frog-4.png'
p226
I41
sS'cellular_phone-3.png'
p227
I14
sS'spoon-7.png'
p228
I63
sS'bottle-13.png'
p229
I7
sS'flatfish-7.png'
p230
I37
sS'device1-3.png'
p231
I24
sS'horseshoe-5.png'
p232
I49
sS'children-12.png'
p233
I16
sS'stef-08.png'
p234
I65
sS'cup-18.png'
p235
I21
sS'truck-11.png'
p236
I68
sS'cattle-1.png'
p237
I13
sS'personal_car-18.png'
p238
I57
sS'hat-1.png'
p239
I45
sS'lizzard-8.png'
p240
I52
sS'spring-11.png'
p241
I64
sS'teddy-03.png'
p242
I66
sS'apple-8.png'
p243
I1
sS'cellular_phone-2.png'
p244
I14
sS'children-20.png'
p245
I16
sS'personal_car-19.png'
p246
I57
sS'crown-5.png'
p247
I20
sS'butterfly-6.png'
p248
I9
sS'hat-10.png'
p249
I45
sS'spoon-5.png'
p250
I63
sS'sea_snake-8.png'
p251
I61
sS'fly-10.png'
p252
I38
sS'pocket-19.png'
p253
I58
sS'Comma-18.png'
p254
I19
sS'device7-17.png'
p255
I30
sS'pencil-15.png'
p256
I56
sS'pencil-4.png'
p257
I56
sS'beetle-14.png'
p258
I3
sS'Comma-6.png'
p259
I19
sS'device9-20.png'
p260
I32
sS'cellular_phone-20.png'
p261
I14
sS'device2-9.png'
p262
I25
sS'pocket-6.png'
p263
I58
sS'sea_snake-17.png'
p264
I61
sS'Glas-19.png'
p265
I42
sS'rat-17.png'
p266
I59
sS'device1-16.png'
p267
I24
sS'horseshoe-20.png'
p268
I49
sS'hat-5.png'
p269
I45
sS'bottle-14.png'
p270
I7
sS'device9-13.png'
p271
I32
sS'butterfly-8.png'
p272
I9
sS'device1-4.png'
p273
I24
sS'teddy-20.png'
p274
I66
sS'beetle-4.png'
p275
I3
sS'fish-12.png'
p276
I36
sS'hat-12.png'
p277
I45
sS'device8-17.png'
p278
I31
sS'carriage-14.png'
p279
I12
sS'turtle-17.png'
p280
I69
sS'Misk-6.png'
p281
I54
sS'device9-8.png'
p282
I32
sS'teddy-09.png'
p283
I66
sS'cup-12.png'
p284
I21
sS'tree-14.png'
p285
I67
sS'Bone-1.png'
p286
I6
sS'dog-17.png'
p287
I33
sS'shoe-8.png'
p288
I62
sS'spring-19.png'
p289
I64
sS'car-02.png'
p290
I11
sS'cattle-8.png'
p291
I13
sS'pocket-13.png'
p292
I58
sS'device2-11.png'
p293
I25
sS'spring-4.png'
p294
I64
sS'device4-6.png'
p295
I27
sS'hammer-1.png'
p296
I44
sS'Glas-20.png'
p297
I42
sS'bat-13.png'
p298
I2
sS'spring-7.png'
p299
I64
sS'truck-17.png'
p300
I68
sS'device8-19.png'
p301
I31
sS'device1-12.png'
p302
I24
sS'device5-12.png'
p303
I28
sS'HCircle-16.png'
p304
I46
sS'guitar-7.png'
p305
I43
sS'bird-1.png'
p306
I5
sS'truck-04.png'
p307
I68
sS'horseshoe-7.png'
p308
I49
sS'spoon-1.png'
p309
I63
sS'fountain-04.png'
p310
I40
sS'device8-2.png'
p311
I31
sS'ray-8.png'
p312
I60
sS'butterfly-4.png'
p313
I9
sS'device3-17.png'
p314
I26
sS'device0-8.png'
p315
I23
sS'camel-17.png'
p316
I10
sS'device9-5.png'
p317
I32
sS'turtle-13.png'
p318
I69
sS'deer-9.png'
p319
I22
sS'device7-9.png'
p320
I30
sS'ray-16.png'
p321
I60
sS'Glas-17.png'
p322
I42
sS'carriage-08.png'
p323
I12
sS'lmfish-12.png'
p324
I53
sS'car-06.png'
p325
I11
sS'device6-11.png'
p326
I29
sS'spring-9.png'
p327
I64
sS'camel-7.png'
p328
I10
sS'shoe-13.png'
p329
I62
sS'device0-11.png'
p330
I23
sS'horseshoe-1.png'
p331
I49
sS'truck-02.png'
p332
I68
sS'teddy-07.png'
p333
I66
sS'device2-19.png'
p334
I25
sS'deer-19.png'
p335
I22
sS'bottle-08.png'
p336
I7
sS'pencil-11.png'
p337
I56
sS'hammer-11.png'
p338
I44
sS'bell-8.png'
p339
I4
sS'turtle-5.png'
p340
I69
sS'face-14.png'
p341
I35
sS'Glas-9.png'
p342
I42
sS'face-9.png'
p343
I35
sS'bat-1.png'
p344
I2
sS'lizzard-16.png'
p345
I52
sS'device2-5.png'
p346
I25
sS'device7-7.png'
p347
I30
sS'device4-3.png'
p348
I27
sS'device8-6.png'
p349
I31
sS'cattle-6.png'
p350
I13
sS'fork-16.png'
p351
I39
sS'bell-6.png'
p352
I4
sS'fly-8.png'
p353
I38
sS'jar-2.png'
p354
I50
sS'classic-3.png'
p355
I18
sS'device6-16.png'
p356
I29
sS'device1-8.png'
p357
I24
sS'Misk-19.png'
p358
I54
sS'device7-18.png'
p359
I30
sS'device9-19.png'
p360
I32
sS'teddy-17.png'
p361
I66
sS'pocket-5.png'
p362
I58
sS'device4-12.png'
p363
I27
sS'stef-07.png'
p364
I65
sS'device0-2.png'
p365
I23
sS'device0-15.png'
p366
I23
sS'spoon-15.png'
p367
I63
sS'watch-18.png'
p368
I70
sS'bell-17.png'
p369
I4
sS'dog-4.png'
p370
I33
sS'jar-8.png'
p371
I50
sS'turtle-20.png'
p372
I69
sS'beetle-3.png'
p373
I3
sS'lizzard-12.png'
p374
I52
sS'lmfish-18.png'
p375
I53
sS'jar-19.png'
p376
I50
sS'bird-5.png'
p377
I5
sS'camel-19.png'
p378
I10
sS'car-12.png'
p379
I11
sS'key-3.png'
p380
I51
sS'frog-19.png'
p381
I41
sS'shoe-9.png'
p382
I62
sS'cattle-19.png'
p383
I13
sS'dog-14.png'
p384
I33
sS'Misk-12.png'
p385
I54
sS'bat-9.png'
p386
I2
sS'brick-05.png'
p387
I8
sS'teddy-19.png'
p388
I66
sS'HCircle-12.png'
p389
I46
sS'stef-16.png'
p390
I65
sS'cellular_phone-1.png'
p391
I14
sS'hammer-6.png'
p392
I44
sS'Bone-11.png'
p393
I6
sS'fly-5.png'
p394
I38
sS'cattle-12.png'
p395
I13
sS'device3-4.png'
p396
I26
sS'device5-5.png'
p397
I28
sS'frog-1.png'
p398
I41
sS'Bone-16.png'
p399
I6
sS'chicken-4.png'
p400
I15
sS'fountain-14.png'
p401
I40
sS'classic-7.png'
p402
I18
sS'horse-8.png'
p403
I48
sS'device9-9.png'
p404
I32
sS'turtle-6.png'
p405
I69
sS'horseshoe-12.png'
p406
I49
sS'fly-20.png'
p407
I38
sS'fish-2.png'
p408
I36
sS'frog-8.png'
p409
I41
sS'bell-2.png'
p410
I4
sS'ray-20.png'
p411
I60
sS'car-14.png'
p412
I11
sS'deer-5.png'
p413
I22
sS'fly-13.png'
p414
I38
sS'crown-19.png'
p415
I20
sS'horse-17.png'
p416
I48
sS'device1-10.png'
p417
I24
sS'device5-10.png'
p418
I28
sS'Bone-13.png'
p419
I6
sS'hammer-4.png'
p420
I44
sS'stef-01.png'
p421
I65
sS'cattle-10.png'
p422
I13
sS'apple-4.png'
p423
I1
sS'device3-10.png'
p424
I26
sS'children-6.png'
p425
I16
sS'elephant-4.png'
p426
I34
sS'bat-12.png'
p427
I2
sS'personal_car-1.png'
p428
I57
sS'carriage-13.png'
p429
I12
sS'ray-2.png'
p430
I60
sS'truck-20.png'
p431
I68
sS'chicken-13.png'
p432
I15
sS'jar-15.png'
p433
I50
sS'spoon-9.png'
p434
I63
sS'flatfish-9.png'
p435
I37
sS'Glas-18.png'
p436
I42
sS'HCircle-5.png'
p437
I46
sS'chicken-11.png'
p438
I15
sS'deer-3.png'
p439
I22
sS'device8-14.png'
p440
I31
sS'flatfish-12.png'
p441
I37
sS'Comma-10.png'
p442
I19
sS'car-04.png'
p443
I11
sS'children-15.png'
p444
I16
sS'personal_car-12.png'
p445
I57
sS'apple-6.png'
p446
I1
sS'rat-13.png'
p447
I59
sS'fork-12.png'
p448
I39
sS'bat-10.png'
p449
I2
sS'hammer-10.png'
p450
I44
sS'pocket-11.png'
p451
I58
sS'device2-13.png'
p452
I25
sS'Misk-15.png'
p453
I54
sS'chicken-8.png'
p454
I15
sS'fountain-18.png'
p455
I40
sS'device1-17.png'
p456
I24
sS'sea_snake-6.png'
p457
I61
sS'key-7.png'
p458
I51
sS'device4-16.png'
p459
I27
sS'fountain-10.png'
p460
I40
sS'watch-6.png'
p461
I70
sS'lmfish-17.png'
p462
I53
sS'device2-2.png'
p463
I25
sS'bird-8.png'
p464
I5
sS'device3-14.png'
p465
I26
sS'frog-2.png'
p466
I41
sS'bell-13.png'
p467
I4
sS'device5-19.png'
p468
I28
sS'fish-19.png'
p469
I36
sS'watch-8.png'
p470
I70
sS'pencil-9.png'
p471
I56
sS'tree-3.png'
p472
I67
sS'car-03.png'
p473
I11
sS'device6-15.png'
p474
I29
sS'camel-15.png'
p475
I10
sS'jar-11.png'
p476
I50
sS'carriage-03.png'
p477
I12
sS'cup-8.png'
p478
I21
sS'brick-10.png'
p479
I8
sS'hat-15.png'
p480
I45
sS'lizzard-18.png'
p481
I52
sS'beetle-19.png'
p482
I3
sS'bird-13.png'
p483
I5
sS'lizzard-1.png'
p484
I52
sS'device0-17.png'
p485
I23
sS'spoon-3.png'
p486
I63
sS'dog-6.png'
p487
I33
sS'device3-8.png'
p488
I26
sS'beetle-12.png'
p489
I3
sS'device9-18.png'
p490
I32
sS'flatfish-17.png'
p491
I37
sS'carriage-19.png'
p492
I12
sS'frog-16.png'
p493
I41
sS'device9-11.png'
p494
I32
sS'Bone-14.png'
p495
I6
sS'brick-12.png'
p496
I8
sS'bell-20.png'
p497
I4
sS'cup-3.png'
p498
I21
sS'fork-1.png'
p499
I39
sS'chopper-05.png'
p500
I17
sS'device6-19.png'
p501
I29
sS'sea_snake-15.png'
p502
I61
sS'deer-13.png'
p503
I22
sS'fork-7.png'
p504
I39
sS'beetle-10.png'
p505
I3
sS'butterfly-7.png'
p506
I9
sS'camel-3.png'
p507
I10
sS'children-2.png'
p508
I16
sS'watch-4.png'
p509
I70
sS'fish-8.png'
p510
I36
sS'device0-10.png'
p511
I23
sS'shoe-4.png'
p512
I62
sS'key-11.png'
p513
I51
sS'personal_car-3.png'
p514
I57
sS'HCircle-9.png'
p515
I46
sS'butterfly-15.png'
p516
I9
sS'truck-10.png'
p517
I68
sS'spoon-12.png'
p518
I63
sS'Misk-20.png'
p519
I54
sS'teddy-14.png'
p520
I66
sS'octopus-16.png'
p521
I55
sS'device9-1.png'
p522
I32
sS'device1-1.png'
p523
I24
sS'beetle-5.png'
p524
I3
sS'children-11.png'
p525
I16
sS'Comma-8.png'
p526
I19
sS'bottle-17.png'
p527
I7
sS'device7-13.png'
p528
I30
sS'lizzard-7.png'
p529
I52
sS'chicken-14.png'
p530
I15
sS'device6-5.png'
p531
I29
sS'device5-18.png'
p532
I28
sS'spoon-14.png'
p533
I63
sS'bird-7.png'
p534
I5
sS'device9-15.png'
p535
I32
sS'bat-2.png'
p536
I2
sS'elephant-10.png'
p537
I34
sS'Bone-9.png'
p538
I6
sS'fork-18.png'
p539
I39
sS'watch-11.png'
p540
I70
sS'shoe-20.png'
p541
I62
sS'device4-8.png'
p542
I27
sS'spring-10.png'
p543
I64
sS'fish-10.png'
p544
I36
sS'hammer-15.png'
p545
I44
sS'Comma-12.png'
p546
I19
sS'jar-1.png'
p547
I50
sS'beetle-2.png'
p548
I3
sS'turtle-19.png'
p549
I69
sS'lmfish-14.png'
p550
I53
sS'crown-17.png'
p551
I20
sS'cup-14.png'
p552
I21
sS'horse-10.png'
p553
I48
sS'pencil-1.png'
p554
I56
sS'cup-4.png'
p555
I21
sS'chopper-15.png'
p556
I17
sS'turtle-4.png'
p557
I69
sS'chopper-04.png'
p558
I17
sS'spoon-16.png'
p559
I63
sS'teddy-05.png'
p560
I66
sS'key-15.png'
p561
I51
sS'hat-19.png'
p562
I45
sS'pencil-19.png'
p563
I56
sS'elephant-12.png'
p564
I34
sS'Heart-12.png'
p565
I47
sS'spring-12.png'
p566
I64
sS'cellular_phone-8.png'
p567
I14
sS'hat-4.png'
p568
I45
sS'chopper-16.png'
p569
I17
sS'chicken-10.png'
p570
I15
sS'bat-19.png'
p571
I2
sS'device7-2.png'
p572
I30
sS'octopus-20.png'
p573
I55
sS'carriage-04.png'
p574
I12
sS'lmfish-16.png'
p575
I53
sS'horse-11.png'
p576
I48
sS'ray-13.png'
p577
I60
sS'carriage-11.png'
p578
I12
sS'octopus-13.png'
p579
I55
sS'Heart-7.png'
p580
I47
sS'lmfish-2.png'
p581
I53
sS'rat-15.png'
p582
I59
sS'Comma-16.png'
p583
I19
sS'cattle-9.png'
p584
I13
sS'lizzard-9.png'
p585
I52
sS'cup-7.png'
p586
I21
sS'Heart-4.png'
p587
I47
sS'spring-5.png'
p588
I64
sS'Glas-2.png'
p589
I42
sS'device1-18.png'
p590
I24
sS'chopper-18.png'
p591
I17
sS'Glas-13.png'
p592
I42
sS'carriage-06.png'
p593
I12
sS'bell-9.png'
p594
I4
sS'Heart-19.png'
p595
I47
sS'frog-11.png'
p596
I41
sS'lizzard-19.png'
p597
I52
sS'spring-15.png'
p598
I64
sS'guitar-5.png'
p599
I43
sS'horse-18.png'
p600
I48
sS'Misk-17.png'
p601
I54
sS'watch-12.png'
p602
I70
sS'device3-11.png'
p603
I26
sS'stef-20.png'
p604
I65
sS'guitar-18.png'
p605
I43
sS'device6-8.png'
p606
I29
sS'octopus-4.png'
p607
I55
sS'Heart-16.png'
p608
I47
sS'lizzard-10.png'
p609
I52
sS'deer-16.png'
p610
I22
sS'children-8.png'
p611
I16
sS'bird-18.png'
p612
I5
sS'truck-18.png'
p613
I68
sS'brick-08.png'
p614
I8
sS'fork-9.png'
p615
I39
sS'chicken-18.png'
p616
I15
sS'pencil-17.png'
p617
I56
sS'brick-03.png'
p618
I8
sS'guitar-11.png'
p619
I43
sS'device2-7.png'
p620
I25
sS'shoe-3.png'
p621
I62
sS'device3-16.png'
p622
I26
sS'car-19.png'
p623
I11
sS'truck-08.png'
p624
I68
sS'device5-14.png'
p625
I28
sS'Heart-3.png'
p626
I47
sS'cellular_phone-10.png'
p627
I14
sS'key-4.png'
p628
I51
sS'face-7.png'
p629
I35
sS'tree-13.png'
p630
I67
sS'flatfish-6.png'
p631
I37
sS'frog-15.png'
p632
I41
sS'personal_car-4.png'
p633
I57
sS'bat-5.png'
p634
I2
sS'Misk-8.png'
p635
I54
sS'brick-01.png'
p636
I8
sS'turtle-8.png'
p637
I69
sS'dog-11.png'
p638
I33
sS'Bone-3.png'
p639
I6
sS'stef-10.png'
p640
I65
sS'cellular_phone-12.png'
p641
I14
sS'bottle-19.png'
p642
I7
sS'lizzard-14.png'
p643
I52
sS'elephant-6.png'
p644
I34
sS'face-5.png'
p645
I35
sS'rat-20.png'
p646
I59
sS'hammer-3.png'
p647
I44
sS'hammer-17.png'
p648
I44
sS'classic-13.png'
p649
I18
sS'fly-9.png'
p650
I38
sS'classic-2.png'
p651
I18
sS'shoe-7.png'
p652
I62
sS'bat-7.png'
p653
I2
sS'crown-6.png'
p654
I20
sS'fork-19.png'
p655
I39
sS'HCircle-14.png'
p656
I46
sS'device5-3.png'
p657
I28
sS'fork-10.png'
p658
I39
sS'flatfish-10.png'
p659
I37
sS'turtle-16.png'
p660
I69
sS'apple-13.png'
p661
I1
sS'device2-4.png'
p662
I25
sS'chicken-12.png'
p663
I15
sS'device9-16.png'
p664
I32
sS'personal_car-10.png'
p665
I57
sS'ray-18.png'
p666
I60
sS'lmfish-5.png'
p667
I53
sS'fish-20.png'
p668
I36
sS'tree-16.png'
p669
I67
sS'ray-10.png'
p670
I60
sS'fish-17.png'
p671
I36
sS'shoe-15.png'
p672
I62
sS'device5-1.png'
p673
I28
sS'horseshoe-3.png'
p674
I49
sS'elephant-2.png'
p675
I34
sS'Comma-9.png'
p676
I19
sS'Comma-19.png'
p677
I19
sS'brick-15.png'
p678
I8
sS'lizzard-6.png'
p679
I52
sS'shoe-16.png'
p680
I62
sS'sea_snake-12.png'
p681
I61
sS'watch-7.png'
p682
I70
sS'device5-7.png'
p683
I28
sS'fly-3.png'
p684
I38
sS'horse-12.png'
p685
I48
sS'Bone-17.png'
p686
I6
sS'cellular_phone-7.png'
p687
I14
sS'classic-8.png'
p688
I18
sS'cup-6.png'
p689
I21
sS'chicken-15.png'
p690
I15
sS'cattle-4.png'
p691
I13
sS'pocket-18.png'
p692
I58
sS'device4-4.png'
p693
I27
sS'fork-14.png'
p694
I39
sS'lmfish-20.png'
p695
I53
sS'flatfish-2.png'
p696
I37
sS'fork-6.png'
p697
I39
sS'jar-4.png'
p698
I50
sS'fly-17.png'
p699
I38
sS'classic-19.png'
p700
I18
sS'fountain-12.png'
p701
I40
sS'chicken-2.png'
p702
I15
sS'butterfly-20.png'
p703
I9
sS'carriage-09.png'
p704
I12
sS'flatfish-18.png'
p705
I37
sS'lmfish-1.png'
p706
I53
sS'jar-10.png'
p707
I50
sS'device4-10.png'
p708
I27
sS'bird-19.png'
p709
I5
sS'turtle-10.png'
p710
I69
sS'children-9.png'
p711
I16
sS'bell-15.png'
p712
I4
sS'butterfly-9.png'
p713
I9
sS'pocket-3.png'
p714
I58
sS'shoe-11.png'
p715
I62
sS'ray-4.png'
p716
I60
sS'HCircle-1.png'
p717
I46
sS'device8-10.png'
p718
I31
sS'face-19.png'
p719
I35
sS'key-13.png'
p720
I51
sS'apple-19.png'
p721
I1
sS'device6-1.png'
p722
I29
sS'frog-17.png'
p723
I41
sS'car-10.png'
p724
I11
sS'teddy-04.png'
p725
I66
sS'teddy-02.png'
p726
I66
sS'bird-17.png'
p727
I5
sS'device1-7.png'
p728
I24
sS'cattle-17.png'
p729
I13
sS'fountain-01.png'
p730
I40
sS'device9-4.png'
p731
I32
sS'dog-12.png'
p732
I33
sS'guitar-9.png'
p733
I43
sS'watch-10.png'
p734
I70
sS'bat-16.png'
p735
I2
sS'ray-6.png'
p736
I60
sS'device2-15.png'
p737
I25
sS'elephant-15.png'
p738
I34
sS'bird-9.png'
p739
I5
sS'key-1.png'
p740
I51
sS'octopus-14.png'
p741
I55
sS'classic-11.png'
p742
I18
sS'device1-20.png'
p743
I24
sS'crown-13.png'
p744
I20
sS'shoe-5.png'
p745
I62
sS'deer-7.png'
p746
I22
sS'rat-02.png'
p747
I59
sS'horseshoe-18.png'
p748
I49
sS'bottle-15.png'
p749
I7
sS'lmfish-9.png'
p750
I53
sS'fly-15.png'
p751
I38
sS'fly-7.png'
p752
I38
sS'horse-3.png'
p753
I48
sS'apple-1.png'
p754
I1
sS'device1-5.png'
p755
I24
sS'Comma-11.png'
p756
I19
sS'guitar-14.png'
p757
I43
sS'device5-16.png'
p758
I28
sS'apple-9.png'
p759
I1
sS'device5-9.png'
p760
I28
sS'jar-6.png'
p761
I50
sS'butterfly-1.png'
p762
I9
sS'frog-10.png'
p763
I41
sS'children-4.png'
p764
I16
sS'bottle-01.png'
p765
I7
sS'brick-19.png'
p766
I8
sS'device2-17.png'
p767
I25
sS'cellular_phone-9.png'
p768
I14
sS'hat-11.png'
p769
I45
sS'chopper-01.png'
p770
I17
sS'octopus-2.png'
p771
I55
sS'Heart-10.png'
p772
I47
sS'apple-11.png'
p773
I1
sS'stef-03.png'
p774
I65
sS'bat-8.png'
p775
I2
sS'Misk-5.png'
p776
I54
sS'lizzard-17.png'
p777
I52
sS'device9-14.png'
p778
I32
sS'device8-12.png'
p779
I31
sS'guitar-4.png'
p780
I43
sS'sea_snake-16.png'
p781
I61
sS'lmfish-3.png'
p782
I53
sS'horseshoe-4.png'
p783
I49
sS'truck-07.png'
p784
I68
sS'bird-20.png'
p785
I5
sS'children-17.png'
p786
I16
sS'flatfish-4.png'
p787
I37
sS'butterfly-3.png'
p788
I9
sS'shoe-2.png'
p789
I62
sS'rat-04.png'
p790
I59
sS'pencil-10.png'
p791
I56
sS'chopper-11.png'
p792
I17
sS'classic-15.png'
p793
I18
sS'spring-8.png'
p794
I64
sS'rat-16.png'
p795
I59
sS'classic-20.png'
p796
I18
sS'pocket-7.png'
p797
I58
sS'Misk-3.png'
p798
I54
sS'spring-3.png'
p799
I64
sS'lizzard-3.png'
p800
I52
sS'butterfly-5.png'
p801
I9
sS'cattle-3.png'
p802
I13
sS'deer-15.png'
p803
I22
sS'bell-7.png'
p804
I4
sS'teddy-01.png'
p805
I66
sS'bottle-05.png'
p806
I7
sS'crown-7.png'
p807
I20
sS'chopper-08.png'
p808
I17
sS'apple-15.png'
p809
I1
sS'spoon-10.png'
p810
I63
sS'tree-1.png'
p811
I67
sS'bat-18.png'
p812
I2
sS'device6-4.png'
p813
I29
sS'face-15.png'
p814
I35
sS'teddy-10.png'
p815
I66
sS'carriage-01.png'
p816
I12
sS'apple-20.png'
p817
I1
sS'truck-03.png'
p818
I68
sS'elephant-1.png'
p819
I34
sS'rat-18.png'
p820
I59
sS'dog-16.png'
p821
I33
sS'Glas-7.png'
p822
I42
sS'spring-1.png'
p823
I64
sS'beetle-17.png'
p824
I3
sS'rat-01.png'
p825
I59
sS'fountain-05.png'
p826
I40
sS'fish-15.png'
p827
I36
sS'device8-3.png'
p828
I31
sS'ray-9.png'
p829
I60
sS'rat-11.png'
p830
I59
sS'cellular_phone-15.png'
p831
I14
sS'jar-18.png'
p832
I50
sS'rat-08.png'
p833
I59
sS'elephant-19.png'
p834
I34
sS'face-2.png'
p835
I35
sS'crown-8.png'
p836
I20
sS'octopus-18.png'
p837
I55
sS'face-13.png'
p838
I35
sS'key-19.png'
p839
I51
sS'crown-16.png'
p840
I20
sS'device6-6.png'
p841
I29
sS'cup-15.png'
p842
I21
sS'stef-13.png'
p843
I65
sS'chopper-14.png'
p844
I17
sS'car-16.png'
p845
I11
sS'cattle-7.png'
p846
I13
sS'device0-18.png'
p847
I23
sS'fork-17.png'
p848
I39
sS'spring-16.png'
p849
I64
sS'device8-9.png'
p850
I31
sS'ray-3.png'
p851
I60
sS'fork-3.png'
p852
I39
sS'rat-03.png'
p853
I59
sS'fly-19.png'
p854
I38
sS'children-19.png'
p855
I16
sS'guitar-10.png'
p856
I43
sS'chicken-5.png'
p857
I15
sS'fountain-15.png'
p858
I40
sS'cellular_phone-5.png'
p859
I14
sS'camel-5.png'
p860
I10
sS'device2-18.png'
p861
I25
sS'lmfish-4.png'
p862
I53
sS'camel-14.png'
p863
I10
sS'flatfish-13.png'
p864
I37
sS'pencil-7.png'
p865
I56
sS'crown-14.png'
p866
I20
sS'cup-17.png'
p867
I21
sS'device7-14.png'
p868
I30
sS'jar-16.png'
p869
I50
sS'Bone-10.png'
p870
I6
sS'fly-4.png'
p871
I38
sS'tree-11.png'
p872
I67
sS'device0-20.png'
p873
I23
sS'butterfly-17.png'
p874
I9
sS'camel-6.png'
p875
I10
sS'deer-1.png'
p876
I22
sS'device0-5.png'
p877
I23
sS'teddy-12.png'
p878
I66
sS'horseshoe-8.png'
p879
I49
sS'device2-12.png'
p880
I25
sS'personal_car-17.png'
p881
I57
sS'deer-11.png'
p882
I22
sS'classic-4.png'
p883
I18
sS'hammer-19.png'
p884
I44
sS'pocket-14.png'
p885
I58
sS'truck-09.png'
p886
I68
sS'jar-12.png'
p887
I50
sS'pencil-5.png'
p888
I56
sS'carriage-17.png'
p889
I12
sS'turtle-11.png'
p890
I69
sS'octopus-8.png'
p891
I55
sS'truck-12.png'
p892
I68
sS'dog-15.png'
p893
I33
sS'lizzard-5.png'
p894
I52
sS'Bone-12.png'
p895
I6
sS'lizzard-15.png'
p896
I52
sS'camel-8.png'
p897
I10
sS'classic-6.png'
p898
I18
sS'lmfish-11.png'
p899
I53
sS'horse-9.png'
p900
I48
sS'cup-10.png'
p901
I21
sS'lmfish-19.png'
p902
I53
sS'camel-1.png'
p903
I10
sS'device2-16.png'
p904
I25
sS'tree-5.png'
p905
I67
sS'bat-14.png'
p906
I2
sS'camel-10.png'
p907
I10
sS'device4-20.png'
p908
I27
sS'Comma-4.png'
p909
I19
sS'device4-17.png'
p910
I27
sS'carriage-15.png'
p911
I12
sS'chopper-03.png'
p912
I17
sS'stef-12.png'
p913
I65
sS'Comma-5.png'
p914
I19
sS'key-2.png'
p915
I51
sS'sea_snake-3.png'
p916
I61
sS'key-17.png'
p917
I51
sS'fork-5.png'
p918
I39
sS'tree-19.png'
p919
I67
sS'children-7.png'
p920
I16
sS'hammer-7.png'
p921
I44
sS'cattle-13.png'
p922
I13
sS'jar-14.png'
p923
I50
sS'device7-11.png'
p924
I30
sS'watch-9.png'
p925
I70
sS'device3-6.png'
p926
I26
sS'cellular_phone-19.png'
p927
I14
sS'bird-6.png'
p928
I5
sS'fly-14.png'
p929
I38
sS'truck-16.png'
p930
I68
sS'Comma-7.png'
p931
I19
sS'device2-8.png'
p932
I25
sS'Glas-14.png'
p933
I42
sS'Comma-13.png'
p934
I19
sS'device3-5.png'
p935
I26
sS'truck-01.png'
p936
I68
sS'horseshoe-2.png'
p937
I49
sS'device3-19.png'
p938
I26
sS'elephant-3.png'
p939
I34
sS'sea_snake-2.png'
p940
I61
sS'chicken-9.png'
p941
I15
sS'apple-5.png'
p942
I1
sS'fountain-19.png'
p943
I40
sS'fish-1.png'
p944
I36
sS'device8-13.png'
p945
I31
sS'tree-9.png'
p946
I67
sS'octopus-17.png'
p947
I55
sS'pencil-12.png'
p948
I56
sS'flatfish-20.png'
p949
I37
sS'butterfly-13.png'
p950
I9
sS'chopper-06.png'
p951
I17
sS'octopus-6.png'
p952
I55
sS'Heart-14.png'
p953
I47
sS'HCircle-15.png'
p954
I46
sS'Bone-5.png'
p955
I6
sS'Misk-4.png'
p956
I54
sS'frog-5.png'
p957
I41
sS'device2-6.png'
p958
I25
sS'cattle-5.png'
p959
I13
sS'bottle-12.png'
p960
I7
sS'fork-15.png'
p961
I39
sS'personal_car-13.png'
p962
I57
sS'flatfish-14.png'
p963
I37
sS'jar-5.png'
p964
I50
sS'crown-2.png'
p965
I20
sS'brick-06.png'
p966
I8
sS'tree-2.png'
p967
I67
sS'ray-11.png'
p968
I60
sS'pocket-10.png'
p969
I58
sS'bell-5.png'
p970
I4
sS'device3-2.png'
p971
I26
sS'watch-1.png'
p972
I70
sS'teddy-08.png'
p973
I66
sS'personal_car-8.png'
p974
I57
sS'truck-06.png'
p975
I68
sS'bird-2.png'
p976
I5
sS'teddy-16.png'
p977
I66
sS'HCircle-8.png'
p978
I46
sS'horseshoe-14.png'
p979
I49
sS'HCircle-17.png'
p980
I46
sS'deer-12.png'
p981
I22
sS'shoe-14.png'
p982
I62
sS'horse-1.png'
p983
I48
sS'spoon-4.png'
p984
I63
sS'fly-11.png'
p985
I38
sS'flatfish-16.png'
p986
I37
sS'Heart-8.png'
p987
I47
sS'Comma-15.png'
p988
I19
sS'device9-10.png'
p989
I32
sS'personal_car-6.png'
p990
I57
sS'Glas-11.png'
p991
I42
sS'device1-9.png'
p992
I24
sS'butterfly-16.png'
p993
I9
sS'watch-3.png'
p994
I70
sS'device9-3.png'
p995
I32
sS'cattle-2.png'
p996
I13
sS'fish-5.png'
p997
I36
sS'Misk-2.png'
p998
I54
sS'brick-11.png'
p999
I8
sS'Misk-11.png'
p1000
I54
sS'elephant-8.png'
p1001
I34
sS'car-11.png'
p1002
I11
sS'bottle-03.png'
p1003
I7
sS'HCircle-3.png'
p1004
I46
sS'personal_car-20.png'
p1005
I57
sS'device8-16.png'
p1006
I31
sS'carriage-10.png'
p1007
I12
sS'chopper-09.png'
p1008
I17
sS'beetle-13.png'
p1009
I3
sS'watch-5.png'
p1010
I70
sS'pencil-3.png'
p1011
I56
sS'device6-3.png'
p1012
I29
sS'teddy-18.png'
p1013
I66
sS'HCircle-10.png'
p1014
I46
sS'fountain-17.png'
p1015
I40
sS'chicken-7.png'
p1016
I15
sS'stef-18.png'
p1017
I65
sS'butterfly-14.png'
p1018
I9
sS'sea_snake-19.png'
p1019
I61
sS'car-17.png'
p1020
I11
sS'hat-6.png'
p1021
I45
sS'horse-14.png'
p1022
I48
sS'hat-18.png'
p1023
I45
sS'Misk-13.png'
p1024
I54
sS'deer-6.png'
p1025
I22
sS'device3-9.png'
p1026
I26
sS'Bone-18.png'
p1027
I6
sS'device4-2.png'
p1028
I27
sS'bell-14.png'
p1029
I4
sS'device9-2.png'
p1030
I32
sS'crown-4.png'
p1031
I20
sS'device4-18.png'
p1032
I27
sS'children-5.png'
p1033
I16
sS'turtle-14.png'
p1034
I69
sS'horseshoe-13.png'
p1035
I49
sS'crown-11.png'
p1036
I20
sS'key-16.png'
p1037
I51
sS'car-15.png'
p1038
I11
sS'teddy-13.png'
p1039
I66
sS'crown-18.png'
p1040
I20
sS'personal_car-2.png'
p1041
I57
sS'truck-19.png'
p1042
I68
sS'horse-16.png'
p1043
I48
sS'Heart-6.png'
p1044
I47
sS'bell-16.png'
p1045
I4
sS'hammer-16.png'
p1046
I44
sS'classic-14.png'
p1047
I18
sS'hat-13.png'
p1048
I45
sS'guitar-8.png'
p1049
I43
sS'device7-8.png'
p1050
I30
sS'bottle-16.png'
p1051
I7
sS'octopus-10.png'
p1052
I55
sS'key-14.png'
p1053
I51
sS'sea_snake-10.png'
p1054
I61
sS'stef-14.png'
p1055
I65
sS'HCircle-4.png'
p1056
I46
sS'deer-2.png'
p1057
I22
sS'chopper-20.png'
p1058
I17
sS'hat-2.png'
p1059
I45
sS'fountain-07.png'
p1060
I40
sS'device4-15.png'
p1061
I27
sS'tree-12.png'
p1062
I67
sS'elephant-11.png'
p1063
I34
sS'horseshoe-10.png'
p1064
I49
sS'chopper-19.png'
p1065
I17
sS'Glas-8.png'
p1066
I42
sS'octopus-12.png'
p1067
I55
sS'lmfish-15.png'
p1068
I53
sS'chopper-12.png'
p1069
I17
sS'Heart-15.png'
p1070
I47
sS'octopus-7.png'
p1071
I55
sS'bell-11.png'
p1072
I4
sS'pencil-20.png'
p1073
I56
sS'HCircle-18.png'
p1074
I46
sS'lizzard-20.png'
p1075
I52
sS'guitar-12.png'
p1076
I43
sS'device2-20.png'
p1077
I25
sS'device0-9.png'
p1078
I23
sS'children-16.png'
p1079
I16
sS'camel-16.png'
p1080
I10
sS'bird-10.png'
p1081
I5
sS'rat-14.png'
p1082
I59
sS'turtle-12.png'
p1083
I69
sS'HCircle-7.png'
p1084
I46
sS'crown-12.png'
p1085
I20
sS'spring-14.png'
p1086
I64
sS'watch-2.png'
p1087
I70
sS'carriage-05.png'
p1088
I12
sS'chopper-10.png'
p1089
I17
sS'tree-20.png'
p1090
I67
sS'device1-2.png'
p1091
I24
sS'device1-14.png'
p1092
I24
sS'device6-14.png'
p1093
I29
sS'Comma-2.png'
p1094
I19
sS'beetle-7.png'
p1095
I3
sS'guitar-19.png'
p1096
I43
sS'Heart-17.png'
p1097
I47
sS'octopus-5.png'
p1098
I55
sS'lizzard-11.png'
p1099
I52
sS'guitar-2.png'
p1100
I43
sS'Bone-2.png'
p1101
I6
sS'hat-14.png'
p1102
I45
sS'car-20.png'
p1103
I11
sS'sea_snake-18.png'
p1104
I61
sS'dog-9.png'
p1105
I33
sS'spoon-20.png'
p1106
I63
sS'watch-15.png'
p1107
I70
sS'device3-20.png'
p1108
I26
sS'fountain-03.png'
p1109
I40
sS'device9-6.png'
p1110
I32
sS'device8-1.png'
p1111
I31
sS'bottle-09.png'
p1112
I7
sS'children-14.png'
p1113
I16
sS'device7-16.png'
p1114
I30
sS'flatfish-19.png'
p1115
I37
sS'frog-18.png'
p1116
I41
sS'Heart-2.png'
p1117
I47
sS'device6-12.png'
p1118
I29
sS'hammer-20.png'
p1119
I44
sS'Bone-15.png'
p1120
I6
sS'fly-1.png'
p1121
I38
sS'horse-19.png'
p1122
I48
sS'guitar-16.png'
p1123
I43
sS'hammer-12.png'
p1124
I44
sS'cup-2.png'
p1125
I21
sS'cattle-20.png'
p1126
I13
sS'hat-17.png'
p1127
I45
sS'brick-17.png'
p1128
I8
sS'frog-20.png'
p1129
I41
sS'device7-4.png'
p1130
I30
sS'guitar-1.png'
p1131
I43
sS'chicken-19.png'
p1132
I15
sS'horse-13.png'
p1133
I48
sS'brick-02.png'
p1134
I8
sS'Misk-7.png'
p1135
I54
sS'horse-5.png'
p1136
I48
sS'device9-12.png'
p1137
I32
sS'children-13.png'
p1138
I16
sS'stef-09.png'
p1139
I65
sS'device8-8.png'
p1140
I31
sS'deer-20.png'
p1141
I22
sS'device4-19.png'
p1142
I27
sS'cellular_phone-11.png'
p1143
I14
sS'bell-19.png'
p1144
I4
sS'fork-20.png'
p1145
I39
sS'fish-13.png'
p1146
I36
sS'Comma-14.png'
p1147
I19
sS'face-6.png'
p1148
I35
sS'fly-18.png'
p1149
I38
sS'bird-4.png'
p1150
I5
sS'pencil-16.png'
p1151
I56
sS'camel-4.png'
p1152
I10
sS'classic-10.png'
p1153
I18
sS'Comma-1.png'
p1154
I19
sS'dog-20.png'
p1155
I33
sS'bat-4.png'
p1156
I2
sS'Misk-9.png'
p1157
I54
sS'spring-6.png'
p1158
I64
sS'device0-13.png'
p1159
I23
sS'fork-11.png'
p1160
I39
sS'turtle-9.png'
p1161
I69
sS'Bone-8.png'
p1162
I6
sS'chopper-07.png'
p1163
I17
sS'bottle-18.png'
p1164
I7
sS'chicken-20.png'
p1165
I15
sS'fish-11.png'
p1166
I36
sS'flatfish-3.png'
p1167
I37
sS'bottle-07.png'
p1168
I7
sS'fish-3.png'
p1169
I36
sS'frog-9.png'
p1170
I41
sS'device4-1.png'
p1171
I27
sS'Glas-16.png'
p1172
I42
sS'apple-10.png'
p1173
I1
sS'face-17.png'
p1174
I35
sS'device2-3.png'
p1175
I25
sS'tree-17.png'
p1176
I67
sS'butterfly-18.png'
p1177
I9
sS'horseshoe-11.png'
p1178
I49
sS'device1-15.png'
p1179
I24
sS'device5-2.png'
p1180
I28
sS'device0-1.png'
p1181
I23
sS'pocket-12.png'
p1182
I58
sS'device8-5.png'
p1183
I31
sS'device6-20.png'
p1184
I29
sS'rat-06.png'
p1185
I59
sS'spoon-8.png'
p1186
I63
sS'shoe-19.png'
p1187
I62
sS'flatfish-8.png'
p1188
I37
sS'Misk-1.png'
p1189
I54
sS'device5-20.png'
p1190
I28
sS'face-8.png'
p1191
I35
sS'device5-8.png'
p1192
I28
sS'classic-16.png'
p1193
I18
sS'shoe-12.png'
p1194
I62
sS'beetle-1.png'
p1195
I3
sS'hammer-9.png'
p1196
I44
sS'device1-13.png'
p1197
I24
sS'car-01.png'
p1198
I11
sS'device5-13.png'
p1199
I28
sS'teddy-06.png'
p1200
I66
sS'Bone-19.png'
p1201
I6
sS'ray-1.png'
p1202
I60
sS'HCircle-6.png'
p1203
I46
sS'elephant-9.png'
p1204
I34
sS'spring-18.png'
p1205
I64
sS'Misk-14.png'
p1206
I54
sS'beetle-20.png'
p1207
I3
sS'device7-1.png'
p1208
I30
sS'sea_snake-7.png'
p1209
I61
sS'key-6.png'
p1210
I51
sS'flatfish-11.png'
p1211
I37
sS'ray-19.png'
p1212
I60
sS'device3-7.png'
p1213
I26
sS'personal_car-9.png'
p1214
I57
sS'cup-19.png'
p1215
I21
sS'horse-20.png'
p1216
I48
sS'classic-1.png'
p1217
I18
sS'shoe-10.png'
p1218
I62
sS'apple-16.png'
p1219
I1
sS'car-07.png'
p1220
I11
sS'device0-7.png'
p1221
I23
sS'children-1.png'
p1222
I16
sS'fly-2.png'
p1223
I38
sS'deer-17.png'
p1224
I22
sS'horse-6.png'
p1225
I48
sS'device2-10.png'
p1226
I25
sS'classic-9.png'
p1227
I18
sS'personal_car-15.png'
p1228
I57
sS'jar-3.png'
p1229
I50
sS'pocket-16.png'
p1230
I58
sS'brick-18.png'
p1231
I8
sS'pencil-8.png'
p1232
I56
sS'Glas-1.png'
p1233
I42
sS'device7-3.png'
p1234
I30
sS'ray-17.png'
p1235
I60
sS'stef-17.png'
p1236
I65
sS'device3-12.png'
p1237
I26
sS'device0-12.png'
p1238
I23
sS'beetle-8.png'
p1239
I3
sS'turtle-1.png'
p1240
I69
sS'lizzard-13.png'
p1241
I52
sS'hat-16.png'
p1242
I45
sS'device8-7.png'
p1243
I31
sS'pocket-9.png'
p1244
I58
sS'device4-13.png'
p1245
I27
sS'rat-05.png'
p1246
I59
sS'ray-5.png'
p1247
I60
sS'carriage-18.png'
p1248
I12
sS'Glas-3.png'
p1249
I42
sS'turtle-3.png'
p1250
I69
sS'camel-12.png'
p1251
I10
sS'classic-18.png'
p1252
I18
sS'device4-11.png'
p1253
I27
sS'pencil-14.png'
p1254
I56
sS'brick-13.png'
p1255
I8
sS'stef-04.png'
p1256
I65
sS'device4-9.png'
p1257
I27
sS'sea_snake-5.png'
p1258
I61
sS'guitar-15.png'
p1259
I43
sS'HCircle-13.png'
p1260
I46
sS'fish-14.png'
p1261
I36
sS'elephant-7.png'
p1262
I34
sS'device1-6.png'
p1263
I24
sS'jar-7.png'
p1264
I50
sS'bird-15.png'
p1265
I5
sS'device0-14.png'
p1266
I23
sS'sea_snake-20.png'
p1267
I61
sS'watch-19.png'
p1268
I70
sS'dog-5.png'
p1269
I33
sS'dog-18.png'
p1270
I33
sS'cattle-15.png'
p1271
I13
sS'device6-9.png'
p1272
I29
sS'bell-3.png'
p1273
I4
sS'device2-14.png'
p1274
I25
sS'fish-9.png'
p1275
I36
sS'fly-12.png'
p1276
I38
sS'apple-18.png'
p1277
I1
sS'truck-13.png'
p1278
I68
sS'cattle-16.png'
p1279
I13
sS'face-11.png'
p1280
I35
sS'spring-13.png'
p1281
I64
sS'lmfish-8.png'
p1282
I53
sS'pocket-4.png'
p1283
I58
sS'hat-20.png'
p1284
I45
sS'bottle-06.png'
p1285
I7
sS'elephant-5.png'
p1286
I34
sS'device5-17.png'
p1287
I28
sS'apple-3.png'
p1288
I1
sS'bat-15.png'
p1289
I2
sS'bell-1.png'
p1290
I4
sS'device7-15.png'
p1291
I30
sS'elephant-18.png'
p1292
I34
sS'Misk-18.png'
p1293
I54
sS'spoon-11.png'
p1294
I63
sS'tree-7.png'
p1295
I67
sS'car-13.png'
p1296
I11
sS'horseshoe-19.png'
p1297
I49
sS'watch-20.png'
p1298
I70
sS'device8-15.png'
p1299
I31
sS'octopus-15.png'
p1300
I55
sS'rat-19.png'
p1301
I59
sS'dog-2.png'
p1302
I33
sS'crown-1.png'
p1303
I20
sS'tree-18.png'
p1304
I67
sS'hat-3.png'
p1305
I45
sS'cattle-18.png'
p1306
I13
sS'fly-6.png'
p1307
I38
sS'horse-2.png'
p1308
I48
sS'rat-12.png'
p1309
I59
sS'frog-7.png'
p1310
I41
sS'beetle-6.png'
p1311
I3
sS'bottle-10.png'
p1312
I7
sS'fork-13.png'
p1313
I39
sS'bottle-04.png'
p1314
I7
sS'hammer-5.png'
p1315
I44
sS'cattle-11.png'
p1316
I13
sS'brick-14.png'
p1317
I8
sS'butterfly-19.png'
p1318
I9
sS'flatfish-1.png'
p1319
I37
sS'chicken-1.png'
p1320
I15
sS'fountain-11.png'
p1321
I40
sS'cup-5.png'
p1322
I21
sS'deer-4.png'
p1323
I22
sS'spoon-17.png'
p1324
I63
sS'spring-20.png'
p1325
I64
sS'bird-12.png'
p1326
I5
sS'elephant-13.png'
p1327
I34
sS'Heart-18.png'
p1328
I47
sS'HCircle-19.png'
p1329
I46
sS'bell-12.png'
p1330
I4
sS'key-20.png'
p1331
I51
sS'spring-2.png'
p1332
I64
sS'rat-10.png'
p1333
I59
sS'truck-15.png'
p1334
I68
sS'spoon-6.png'
p1335
I63
sS'device3-13.png'
p1336
I26
sS'rat-09.png'
p1337
I59
sS'pencil-2.png'
p1338
I56
sS'deer-14.png'
p1339
I22
sS'jar-9.png'
p1340
I50
sS'apple-7.png'
p1341
I1
sS'turtle-7.png'
p1342
I69
sS'fly-16.png'
p1343
I38
sS'bat-11.png'
p1344
I2
sS'ray-12.png'
p1345
I60
sS'fountain-13.png'
p1346
I40
sS'chicken-3.png'
p1347
I15
sS'Bone-20.png'
p1348
I6
sS'fish-7.png'
p1349
I36
sS'Bone-7.png'
p1350
I6
sS'sea_snake-11.png'
p1351
I61
sS'Comma-17.png'
p1352
I19
sS'butterfly-11.png'
p1353
I9
sS'device6-2.png'
p1354
I29
sS'children-18.png'
p1355
I16
sS'carriage-20.png'
p1356
I12
sS'fountain-02.png'
p1357
I40
sS'key-8.png'
p1358
I51
sS'device8-18.png'
p1359
I31
sS'chicken-16.png'
p1360
I15
sS'device3-15.png'
p1361
I26
sS'sea_snake-9.png'
p1362
I61
sS'dog-1.png'
p1363
I33
sS'Glas-4.png'
p1364
I42
sS'cup-13.png'
p1365
I21
sS'carriage-12.png'
p1366
I12
sS'beetle-15.png'
p1367
I3
sS'tree-4.png'
p1368
I67
sS'device8-11.png'
p1369
I31
sS'key-12.png'
p1370
I51
sS'face-18.png'
p1371
I35
sS'Glas-15.png'
p1372
I42
sS'classic-17.png'
p1373
I18
sS'guitar-6.png'
p1374
I43
sS'hat-8.png'
p1375
I45
sS'tree-15.png'
p1376
I67
sS'camel-9.png'
p1377
I10
sS'sea_snake-13.png'
p1378
I61
sS'lizzard-2.png'
p1379
I52
sS'beetle-16.png'
p1380
I3
sS'stef-06.png'
p1381
I65
sS'crown-10.png'
p1382
I20
sS'guitar-17.png'
p1383
I43
sS'pocket-15.png'
p1384
I58
sS'spring-17.png'
p1385
I64
sS'camel-2.png'
p1386
I10
sS'turtle-2.png'
p1387
I69
sS'camel-13.png'
p1388
I10
sS'children-3.png'
p1389
I16
sS'cup-20.png'
p1390
I21
sS'pencil-13.png'
p1391
I56
sS'cellular_phone-4.png'
p1392
I14
sS'elephant-14.png'
p1393
I34
sS'cellular_phone-18.png'
p1394
I14
sS'pencil-6.png'
p1395
I56
sS'pocket-1.png'
p1396
I58
sS'apple-17.png'
p1397
I1
sS'Heart-20.png'
p1398
I47
sS'spoon-19.png'
p1399
I63
sS'teddy-15.png'
p1400
I66
sS'fork-2.png'
p1401
I39
s.