(lp1
S'apple-1.png'
p2
aS'apple-16.png'
p3
aS'apple-12.png'
p4
aS'apple-15.png'
p5
aS'apple-19.png'
p6
aS'apple-2.png'
p7
aS'apple-18.png'
p8
aS'apple-11.png'
p9
aS'apple-20.png'
p10
aS'apple-3.png'
p11
aS'bat-19.png'
p12
aS'bat-13.png'
p13
aS'bat-10.png'
p14
aS'bat-17.png'
p15
aS'bat-16.png'
p16
aS'bat-18.png'
p17
aS'bat-6.png'
p18
aS'bat-9.png'
p19
aS'bat-2.png'
p20
aS'bat-7.png'
p21
aS'beetle-4.png'
p22
aS'beetle-8.png'
p23
aS'beetle-13.png'
p24
aS'beetle-1.png'
p25
aS'beetle-12.png'
p26
aS'beetle-9.png'
p27
aS'beetle-11.png'
p28
aS'beetle-17.png'
p29
aS'beetle-15.png'
p30
aS'beetle-20.png'
p31
aS'bell-9.png'
p32
aS'bell-16.png'
p33
aS'bell-18.png'
p34
aS'bell-4.png'
p35
aS'bell-6.png'
p36
aS'bell-19.png'
p37
aS'bell-5.png'
p38
aS'bell-12.png'
p39
aS'bell-17.png'
p40
aS'bell-3.png'
p41
aS'bird-9.png'
p42
aS'bird-11.png'
p43
aS'bird-7.png'
p44
aS'bird-2.png'
p45
aS'bird-13.png'
p46
aS'bird-14.png'
p47
aS'bird-5.png'
p48
aS'bird-19.png'
p49
aS'bird-10.png'
p50
aS'bird-1.png'
p51
aS'Bone-12.png'
p52
aS'Bone-2.png'
p53
aS'Bone-11.png'
p54
aS'Bone-8.png'
p55
aS'Bone-15.png'
p56
aS'Bone-3.png'
p57
aS'Bone-19.png'
p58
aS'Bone-20.png'
p59
aS'Bone-6.png'
p60
aS'Bone-16.png'
p61
aS'bottle-13.png'
p62
aS'bottle-08.png'
p63
aS'bottle-16.png'
p64
aS'bottle-01.png'
p65
aS'bottle-11.png'
p66
aS'bottle-18.png'
p67
aS'bottle-09.png'
p68
aS'bottle-07.png'
p69
aS'bottle-05.png'
p70
aS'bottle-17.png'
p71
aS'brick-01.png'
p72
aS'brick-12.png'
p73
aS'brick-20.png'
p74
aS'brick-07.png'
p75
aS'brick-16.png'
p76
aS'brick-04.png'
p77
aS'brick-15.png'
p78
aS'brick-11.png'
p79
aS'brick-10.png'
p80
aS'brick-08.png'
p81
aS'butterfly-1.png'
p82
aS'butterfly-17.png'
p83
aS'butterfly-9.png'
p84
aS'butterfly-16.png'
p85
aS'butterfly-12.png'
p86
aS'butterfly-11.png'
p87
aS'butterfly-8.png'
p88
aS'butterfly-6.png'
p89
aS'butterfly-13.png'
p90
aS'butterfly-4.png'
p91
aS'camel-4.png'
p92
aS'camel-7.png'
p93
aS'camel-16.png'
p94
aS'camel-20.png'
p95
aS'camel-2.png'
p96
aS'camel-14.png'
p97
aS'camel-1.png'
p98
aS'camel-15.png'
p99
aS'camel-3.png'
p100
aS'camel-11.png'
p101
aS'car-03.png'
p102
aS'car-02.png'
p103
aS'car-19.png'
p104
aS'car-06.png'
p105
aS'car-13.png'
p106
aS'car-01.png'
p107
aS'car-16.png'
p108
aS'car-17.png'
p109
aS'car-14.png'
p110
aS'car-20.png'
p111
aS'carriage-15.png'
p112
aS'carriage-12.png'
p113
aS'carriage-03.png'
p114
aS'carriage-02.png'
p115
aS'carriage-14.png'
p116
aS'carriage-06.png'
p117
aS'carriage-11.png'
p118
aS'carriage-01.png'
p119
aS'carriage-05.png'
p120
aS'carriage-09.png'
p121
aS'cattle-20.png'
p122
aS'cattle-11.png'
p123
aS'cattle-18.png'
p124
aS'cattle-9.png'
p125
aS'cattle-4.png'
p126
aS'cattle-13.png'
p127
aS'cattle-17.png'
p128
aS'cattle-1.png'
p129
aS'cattle-8.png'
p130
aS'cattle-3.png'
p131
aS'cellular_phone-6.png'
p132
aS'cellular_phone-7.png'
p133
aS'cellular_phone-11.png'
p134
aS'cellular_phone-17.png'
p135
aS'cellular_phone-4.png'
p136
aS'cellular_phone-2.png'
p137
aS'cellular_phone-15.png'
p138
aS'cellular_phone-19.png'
p139
aS'cellular_phone-10.png'
p140
aS'cellular_phone-8.png'
p141
aS'chicken-14.png'
p142
aS'chicken-11.png'
p143
aS'chicken-15.png'
p144
aS'chicken-20.png'
p145
aS'chicken-19.png'
p146
aS'chicken-18.png'
p147
aS'chicken-10.png'
p148
aS'chicken-8.png'
p149
aS'chicken-13.png'
p150
aS'chicken-4.png'
p151
aS'children-17.png'
p152
aS'children-19.png'
p153
aS'children-14.png'
p154
aS'children-10.png'
p155
aS'children-16.png'
p156
aS'children-5.png'
p157
aS'children-6.png'
p158
aS'children-4.png'
p159
aS'children-2.png'
p160
aS'children-20.png'
p161
aS'chopper-19.png'
p162
aS'chopper-08.png'
p163
aS'chopper-06.png'
p164
aS'chopper-13.png'
p165
aS'chopper-05.png'
p166
aS'chopper-17.png'
p167
aS'chopper-04.png'
p168
aS'chopper-11.png'
p169
aS'chopper-18.png'
p170
aS'chopper-10.png'
p171
aS'classic-9.png'
p172
aS'classic-13.png'
p173
aS'classic-1.png'
p174
aS'classic-5.png'
p175
aS'classic-19.png'
p176
aS'classic-3.png'
p177
aS'classic-20.png'
p178
aS'classic-11.png'
p179
aS'classic-16.png'
p180
aS'classic-6.png'
p181
aS'Comma-5.png'
p182
aS'Comma-10.png'
p183
aS'Comma-4.png'
p184
aS'Comma-14.png'
p185
aS'Comma-9.png'
p186
aS'Comma-20.png'
p187
aS'Comma-18.png'
p188
aS'Comma-11.png'
p189
aS'Comma-13.png'
p190
aS'Comma-2.png'
p191
aS'crown-3.png'
p192
aS'crown-16.png'
p193
aS'crown-19.png'
p194
aS'crown-1.png'
p195
aS'crown-20.png'
p196
aS'crown-17.png'
p197
aS'crown-6.png'
p198
aS'crown-8.png'
p199
aS'crown-7.png'
p200
aS'crown-9.png'
p201
aS'cup-3.png'
p202
aS'cup-19.png'
p203
aS'cup-10.png'
p204
aS'cup-1.png'
p205
aS'cup-15.png'
p206
aS'cup-14.png'
p207
aS'cup-5.png'
p208
aS'cup-7.png'
p209
aS'cup-9.png'
p210
aS'cup-13.png'
p211
aS'deer-2.png'
p212
aS'deer-16.png'
p213
aS'deer-9.png'
p214
aS'deer-11.png'
p215
aS'deer-6.png'
p216
aS'deer-1.png'
p217
aS'deer-14.png'
p218
aS'deer-10.png'
p219
aS'deer-13.png'
p220
aS'deer-20.png'
p221
aS'device0-5.png'
p222
aS'device0-16.png'
p223
aS'device0-11.png'
p224
aS'device0-4.png'
p225
aS'device0-3.png'
p226
aS'device0-10.png'
p227
aS'device0-12.png'
p228
aS'device0-19.png'
p229
aS'device0-18.png'
p230
aS'device0-6.png'
p231
aS'device1-12.png'
p232
aS'device1-10.png'
p233
aS'device1-19.png'
p234
aS'device1-7.png'
p235
aS'device1-2.png'
p236
aS'device1-1.png'
p237
aS'device1-18.png'
p238
aS'device1-16.png'
p239
aS'device1-8.png'
p240
aS'device1-15.png'
p241
aS'device2-16.png'
p242
aS'device2-18.png'
p243
aS'device2-8.png'
p244
aS'device2-5.png'
p245
aS'device2-1.png'
p246
aS'device2-19.png'
p247
aS'device2-11.png'
p248
aS'device2-7.png'
p249
aS'device2-4.png'
p250
aS'device2-20.png'
p251
aS'device3-5.png'
p252
aS'device3-9.png'
p253
aS'device3-6.png'
p254
aS'device3-17.png'
p255
aS'device3-18.png'
p256
aS'device3-12.png'
p257
aS'device3-1.png'
p258
aS'device3-3.png'
p259
aS'device3-8.png'
p260
aS'device3-14.png'
p261
aS'device4-10.png'
p262
aS'device4-4.png'
p263
aS'device4-12.png'
p264
aS'device4-6.png'
p265
aS'device4-1.png'
p266
aS'device4-11.png'
p267
aS'device4-7.png'
p268
aS'device4-9.png'
p269
aS'device4-2.png'
p270
aS'device4-15.png'
p271
aS'device5-8.png'
p272
aS'device5-15.png'
p273
aS'device5-19.png'
p274
aS'device5-11.png'
p275
aS'device5-14.png'
p276
aS'device5-1.png'
p277
aS'device5-20.png'
p278
aS'device5-9.png'
p279
aS'device5-13.png'
p280
aS'device5-16.png'
p281
aS'device6-17.png'
p282
aS'device6-11.png'
p283
aS'device6-13.png'
p284
aS'device6-5.png'
p285
aS'device6-12.png'
p286
aS'device6-8.png'
p287
aS'device6-16.png'
p288
aS'device6-20.png'
p289
aS'device6-14.png'
p290
aS'device6-4.png'
p291
aS'device7-13.png'
p292
aS'device7-16.png'
p293
aS'device7-4.png'
p294
aS'device7-9.png'
p295
aS'device7-8.png'
p296
aS'device7-14.png'
p297
aS'device7-15.png'
p298
aS'device7-20.png'
p299
aS'device7-5.png'
p300
aS'device7-1.png'
p301
aS'device8-16.png'
p302
aS'device8-12.png'
p303
aS'device8-1.png'
p304
aS'device8-7.png'
p305
aS'device8-13.png'
p306
aS'device8-17.png'
p307
aS'device8-3.png'
p308
aS'device8-6.png'
p309
aS'device8-9.png'
p310
aS'device8-18.png'
p311
aS'device9-11.png'
p312
aS'device9-4.png'
p313
aS'device9-7.png'
p314
aS'device9-10.png'
p315
aS'device9-5.png'
p316
aS'device9-13.png'
p317
aS'device9-16.png'
p318
aS'device9-18.png'
p319
aS'device9-6.png'
p320
aS'device9-12.png'
p321
aS'dog-8.png'
p322
aS'dog-20.png'
p323
aS'dog-18.png'
p324
aS'dog-1.png'
p325
aS'dog-7.png'
p326
aS'dog-5.png'
p327
aS'dog-11.png'
p328
aS'dog-17.png'
p329
aS'dog-9.png'
p330
aS'dog-13.png'
p331
aS'elephant-15.png'
p332
aS'elephant-19.png'
p333
aS'elephant-18.png'
p334
aS'elephant-5.png'
p335
aS'elephant-10.png'
p336
aS'elephant-8.png'
p337
aS'elephant-12.png'
p338
aS'elephant-2.png'
p339
aS'elephant-6.png'
p340
aS'elephant-14.png'
p341
aS'face-18.png'
p342
aS'face-20.png'
p343
aS'face-1.png'
p344
aS'face-13.png'
p345
aS'face-9.png'
p346
aS'face-6.png'
p347
aS'face-11.png'
p348
aS'face-4.png'
p349
aS'face-5.png'
p350
aS'face-15.png'
p351
aS'fish-8.png'
p352
aS'fish-17.png'
p353
aS'fish-12.png'
p354
aS'fish-3.png'
p355
aS'fish-7.png'
p356
aS'fish-9.png'
p357
aS'fish-6.png'
p358
aS'fish-5.png'
p359
aS'fish-4.png'
p360
aS'fish-20.png'
p361
aS'flatfish-3.png'
p362
aS'flatfish-14.png'
p363
aS'flatfish-6.png'
p364
aS'flatfish-5.png'
p365
aS'flatfish-16.png'
p366
aS'flatfish-8.png'
p367
aS'flatfish-10.png'
p368
aS'flatfish-15.png'
p369
aS'flatfish-11.png'
p370
aS'flatfish-4.png'
p371
aS'fly-18.png'
p372
aS'fly-6.png'
p373
aS'fly-4.png'
p374
aS'fly-9.png'
p375
aS'fly-14.png'
p376
aS'fly-13.png'
p377
aS'fly-8.png'
p378
aS'fly-17.png'
p379
aS'fly-11.png'
p380
aS'fly-7.png'
p381
aS'fork-17.png'
p382
aS'fork-7.png'
p383
aS'fork-4.png'
p384
aS'fork-5.png'
p385
aS'fork-1.png'
p386
aS'fork-18.png'
p387
aS'fork-2.png'
p388
aS'fork-19.png'
p389
aS'fork-3.png'
p390
aS'fork-8.png'
p391
aS'fountain-04.png'
p392
aS'fountain-03.png'
p393
aS'fountain-19.png'
p394
aS'fountain-12.png'
p395
aS'fountain-09.png'
p396
aS'fountain-11.png'
p397
aS'fountain-01.png'
p398
aS'fountain-05.png'
p399
aS'fountain-13.png'
p400
aS'fountain-18.png'
p401
aS'frog-14.png'
p402
aS'frog-13.png'
p403
aS'frog-15.png'
p404
aS'frog-19.png'
p405
aS'frog-1.png'
p406
aS'frog-8.png'
p407
aS'frog-4.png'
p408
aS'frog-17.png'
p409
aS'frog-11.png'
p410
aS'frog-16.png'
p411
aS'Glas-16.png'
p412
aS'Glas-10.png'
p413
aS'Glas-4.png'
p414
aS'Glas-6.png'
p415
aS'Glas-11.png'
p416
aS'Glas-3.png'
p417
aS'Glas-7.png'
p418
aS'Glas-15.png'
p419
aS'Glas-9.png'
p420
aS'Glas-17.png'
p421
aS'guitar-10.png'
p422
aS'guitar-17.png'
p423
aS'guitar-12.png'
p424
aS'guitar-1.png'
p425
aS'guitar-7.png'
p426
aS'guitar-3.png'
p427
aS'guitar-13.png'
p428
aS'guitar-5.png'
p429
aS'guitar-6.png'
p430
aS'guitar-19.png'
p431
aS'hammer-18.png'
p432
aS'hammer-8.png'
p433
aS'hammer-7.png'
p434
aS'hammer-6.png'
p435
aS'hammer-1.png'
p436
aS'hammer-3.png'
p437
aS'hammer-5.png'
p438
aS'hammer-20.png'
p439
aS'hammer-12.png'
p440
aS'hammer-16.png'
p441
aS'hat-4.png'
p442
aS'hat-15.png'
p443
aS'hat-13.png'
p444
aS'hat-16.png'
p445
aS'hat-6.png'
p446
aS'hat-20.png'
p447
aS'hat-9.png'
p448
aS'hat-17.png'
p449
aS'hat-3.png'
p450
aS'hat-11.png'
p451
aS'HCircle-8.png'
p452
aS'HCircle-18.png'
p453
aS'HCircle-13.png'
p454
aS'HCircle-12.png'
p455
aS'HCircle-6.png'
p456
aS'HCircle-2.png'
p457
aS'HCircle-20.png'
p458
aS'HCircle-4.png'
p459
aS'HCircle-14.png'
p460
aS'HCircle-11.png'
p461
aS'Heart-4.png'
p462
aS'Heart-1.png'
p463
aS'Heart-9.png'
p464
aS'Heart-16.png'
p465
aS'Heart-14.png'
p466
aS'Heart-3.png'
p467
aS'Heart-6.png'
p468
aS'Heart-18.png'
p469
aS'Heart-8.png'
p470
aS'Heart-11.png'
p471
aS'horse-19.png'
p472
aS'horse-20.png'
p473
aS'horse-5.png'
p474
aS'horse-12.png'
p475
aS'horse-7.png'
p476
aS'horse-14.png'
p477
aS'horse-17.png'
p478
aS'horse-10.png'
p479
aS'horse-18.png'
p480
aS'horse-9.png'
p481
aS'horseshoe-19.png'
p482
aS'horseshoe-11.png'
p483
aS'horseshoe-16.png'
p484
aS'horseshoe-6.png'
p485
aS'horseshoe-18.png'
p486
aS'horseshoe-15.png'
p487
aS'horseshoe-4.png'
p488
aS'horseshoe-1.png'
p489
aS'horseshoe-7.png'
p490
aS'horseshoe-2.png'
p491
aS'jar-11.png'
p492
aS'jar-20.png'
p493
aS'jar-2.png'
p494
aS'jar-9.png'
p495
aS'jar-13.png'
p496
aS'jar-6.png'
p497
aS'jar-4.png'
p498
aS'jar-18.png'
p499
aS'jar-8.png'
p500
aS'jar-7.png'
p501
aS'key-12.png'
p502
aS'key-3.png'
p503
aS'key-19.png'
p504
aS'key-17.png'
p505
aS'key-8.png'
p506
aS'key-14.png'
p507
aS'key-7.png'
p508
aS'key-18.png'
p509
aS'key-13.png'
p510
aS'key-2.png'
p511
aS'lizzard-2.png'
p512
aS'lizzard-12.png'
p513
aS'lizzard-10.png'
p514
aS'lizzard-1.png'
p515
aS'lizzard-19.png'
p516
aS'lizzard-15.png'
p517
aS'lizzard-6.png'
p518
aS'lizzard-8.png'
p519
aS'lizzard-7.png'
p520
aS'lizzard-18.png'
p521
aS'lmfish-13.png'
p522
aS'lmfish-3.png'
p523
aS'lmfish-18.png'
p524
aS'lmfish-10.png'
p525
aS'lmfish-11.png'
p526
aS'lmfish-9.png'
p527
aS'lmfish-20.png'
p528
aS'lmfish-14.png'
p529
aS'lmfish-17.png'
p530
aS'lmfish-6.png'
p531
aS'Misk-14.png'
p532
aS'Misk-7.png'
p533
aS'Misk-18.png'
p534
aS'Misk-8.png'
p535
aS'Misk-11.png'
p536
aS'Misk-2.png'
p537
aS'Misk-4.png'
p538
aS'Misk-10.png'
p539
aS'Misk-5.png'
p540
aS'Misk-13.png'
p541
aS'octopus-8.png'
p542
aS'octopus-16.png'
p543
aS'octopus-10.png'
p544
aS'octopus-20.png'
p545
aS'octopus-2.png'
p546
aS'octopus-1.png'
p547
aS'octopus-19.png'
p548
aS'octopus-5.png'
p549
aS'octopus-15.png'
p550
aS'octopus-14.png'
p551
aS'pencil-10.png'
p552
aS'pencil-17.png'
p553
aS'pencil-18.png'
p554
aS'pencil-15.png'
p555
aS'pencil-14.png'
p556
aS'pencil-3.png'
p557
aS'pencil-11.png'
p558
aS'pencil-19.png'
p559
aS'pencil-7.png'
p560
aS'pencil-1.png'
p561
aS'personal_car-16.png'
p562
aS'personal_car-20.png'
p563
aS'personal_car-13.png'
p564
aS'personal_car-5.png'
p565
aS'personal_car-6.png'
p566
aS'personal_car-2.png'
p567
aS'personal_car-18.png'
p568
aS'personal_car-1.png'
p569
aS'personal_car-10.png'
p570
aS'personal_car-19.png'
p571
aS'pocket-19.png'
p572
aS'pocket-14.png'
p573
aS'pocket-1.png'
p574
aS'pocket-6.png'
p575
aS'pocket-12.png'
p576
aS'pocket-4.png'
p577
aS'pocket-10.png'
p578
aS'pocket-7.png'
p579
aS'pocket-16.png'
p580
aS'pocket-5.png'
p581
aS'rat-14.png'
p582
aS'rat-02.png'
p583
aS'rat-08.png'
p584
aS'rat-17.png'
p585
aS'rat-20.png'
p586
aS'rat-19.png'
p587
aS'rat-16.png'
p588
aS'rat-04.png'
p589
aS'rat-13.png'
p590
aS'rat-12.png'
p591
aS'ray-8.png'
p592
aS'ray-6.png'
p593
aS'ray-18.png'
p594
aS'ray-19.png'
p595
aS'ray-3.png'
p596
aS'ray-2.png'
p597
aS'ray-15.png'
p598
aS'ray-17.png'
p599
aS'ray-14.png'
p600
aS'ray-9.png'
p601
aS'sea_snake-6.png'
p602
aS'sea_snake-9.png'
p603
aS'sea_snake-7.png'
p604
aS'sea_snake-14.png'
p605
aS'sea_snake-15.png'
p606
aS'sea_snake-13.png'
p607
aS'sea_snake-20.png'
p608
aS'sea_snake-19.png'
p609
aS'sea_snake-3.png'
p610
aS'sea_snake-16.png'
p611
aS'shoe-2.png'
p612
aS'shoe-11.png'
p613
aS'shoe-8.png'
p614
aS'shoe-14.png'
p615
aS'shoe-13.png'
p616
aS'shoe-10.png'
p617
aS'shoe-17.png'
p618
aS'shoe-6.png'
p619
aS'shoe-18.png'
p620
aS'shoe-12.png'
p621
aS'spoon-18.png'
p622
aS'spoon-17.png'
p623
aS'spoon-5.png'
p624
aS'spoon-14.png'
p625
aS'spoon-3.png'
p626
aS'spoon-12.png'
p627
aS'spoon-7.png'
p628
aS'spoon-11.png'
p629
aS'spoon-15.png'
p630
aS'spoon-10.png'
p631
aS'spring-17.png'
p632
aS'spring-16.png'
p633
aS'spring-9.png'
p634
aS'spring-19.png'
p635
aS'spring-7.png'
p636
aS'spring-3.png'
p637
aS'spring-14.png'
p638
aS'spring-10.png'
p639
aS'spring-4.png'
p640
aS'spring-5.png'
p641
aS'stef-12.png'
p642
aS'stef-19.png'
p643
aS'stef-11.png'
p644
aS'stef-04.png'
p645
aS'stef-02.png'
p646
aS'stef-17.png'
p647
aS'stef-05.png'
p648
aS'stef-03.png'
p649
aS'stef-08.png'
p650
aS'stef-15.png'
p651
aS'teddy-12.png'
p652
aS'teddy-13.png'
p653
aS'teddy-03.png'
p654
aS'teddy-06.png'
p655
aS'teddy-19.png'
p656
aS'teddy-07.png'
p657
aS'teddy-10.png'
p658
aS'teddy-15.png'
p659
aS'teddy-01.png'
p660
aS'teddy-17.png'
p661
aS'tree-3.png'
p662
aS'tree-10.png'
p663
aS'tree-9.png'
p664
aS'tree-7.png'
p665
aS'tree-1.png'
p666
aS'tree-13.png'
p667
aS'tree-4.png'
p668
aS'tree-20.png'
p669
aS'tree-14.png'
p670
aS'tree-11.png'
p671
aS'truck-01.png'
p672
aS'truck-02.png'
p673
aS'truck-04.png'
p674
aS'truck-03.png'
p675
aS'truck-16.png'
p676
aS'truck-17.png'
p677
aS'truck-19.png'
p678
aS'truck-08.png'
p679
aS'truck-20.png'
p680
aS'truck-07.png'
p681
aS'turtle-5.png'
p682
aS'turtle-14.png'
p683
aS'turtle-16.png'
p684
aS'turtle-20.png'
p685
aS'turtle-15.png'
p686
aS'turtle-18.png'
p687
aS'turtle-17.png'
p688
aS'turtle-3.png'
p689
aS'turtle-6.png'
p690
aS'turtle-12.png'
p691
aS'watch-16.png'
p692
aS'watch-1.png'
p693
aS'watch-14.png'
p694
aS'watch-6.png'
p695
aS'watch-12.png'
p696
aS'watch-8.png'
p697
aS'watch-10.png'
p698
aS'watch-5.png'
p699
aS'watch-2.png'
p700
aS'watch-19.png'
p701
a.